; Function Attrs: nounwind uwtable
define hidden noundef i32 @lxb_html_tree_adjust_svg_attributes(ptr nocapture noundef readnone %0, ptr nocapture noundef %1, ptr nocapture noundef readnone %2) local_unnamed_addr #0 {
  %4 = getelementptr inbounds i8, ptr %1, i64 32
  %5 = load ptr, ptr %4, align 8
  %6 = getelementptr inbounds i8, ptr %5, i64 208
  %7 = load ptr, ptr %6, align 8
  %8 = getelementptr inbounds i8, ptr %1, i64 8
  %9 = load i64, ptr %8, align 8
  %10 = tail call ptr @lxb_dom_attr_data_by_id(ptr noundef %7, i64 noundef %9) #9
  %11 = getelementptr inbounds i8, ptr %10, i64 24
  br label %12

12:                                               ; preds = %3, %33
  %.020 = phi i64 [ 0, %3 ], [ %34, %33 ]
  %13 = getelementptr inbounds [58 x %struct.lxb_html_tree_res_attr_adjust_t], ptr @lxb_html_tree_res_attr_adjust_svg_map, i64 0, i64 %.020
  %14 = load i64, ptr %11, align 8
  %15 = getelementptr inbounds i8, ptr %13, i64 16
  %16 = load i64, ptr %15, align 8
  %17 = icmp eq i64 %14, %16
  br i1 %17, label %18, label %33

18:                                               ; preds = %12
  %19 = icmp ult i64 %14, 17
  br i1 %19, label %lexbor_hash_entry_str.exit, label %20

20:                                               ; preds = %18
  %21 = load ptr, ptr %10, align 8
  br label %lexbor_hash_entry_str.exit

lexbor_hash_entry_str.exit:                       ; preds = %18, %20
  %.0.i = phi ptr [ %21, %20 ], [ %10, %18 ]
  %22 = load ptr, ptr %13, align 8
  %23 = tail call zeroext i1 @lexbor_str_data_cmp(ptr noundef %.0.i, ptr noundef %22) #9
  br i1 %23, label %24, label %33

24:                                               ; preds = %lexbor_hash_entry_str.exit
  %25 = getelementptr inbounds i8, ptr %13, i64 8
  %26 = load ptr, ptr %25, align 8
  %27 = tail call ptr @lxb_dom_attr_qualified_name_append(ptr noundef %7, ptr noundef %26, i64 noundef %14) #9
  %28 = icmp eq ptr %27, null
  br i1 %28, label %.loopexit, label %29

29:                                               ; preds = %24
  %30 = getelementptr inbounds i8, ptr %27, i64 40
  %31 = load i64, ptr %30, align 8
  %32 = getelementptr inbounds i8, ptr %1, i64 112
  store i64 %31, ptr %32, align 8
  br label %.loopexit

33:                                               ; preds = %12, %lexbor_hash_entry_str.exit
  %34 = add nuw nsw i64 %.020, 1
  %exitcond.not = icmp eq i64 %34, 58
  br i1 %exitcond.not, label %.loopexit, label %12

.loopexit:                                        ; preds = %33, %24, %29
  %.017 = phi i32 [ 0, %29 ], [ 1, %24 ], [ 0, %33 ]
  ret i32 %.017
}